target datalayout = "e-m:e-p270:32:32-p271:32:32-p272:64:64-i64:64-i128:128-f80:128-n8:16:32:64-S128"
target triple = "x86_64-unknown-linux-gnu"

%"class.Imath_3_2::Matrix44" = type { [4 x [4 x float]] }
%"class.Imf_3_2::AcesInputFile::Data" = type <{ ptr, ptr, i64, i64, i32, i32, i8, [3 x i8], %"class.Imath_3_2::Matrix44", [4 x i8] }>

; Function Attrs: mustprogress nounwind uwtable
define linkonce_odr hidden void @_ZN9Imath_3_28Matrix44IfEC2Ev(ptr noundef nonnull align 4 dereferenceable(64) %this) unnamed_addr #5 comdat align 2 {
entry:
  %this.addr = alloca ptr, align 8
  store ptr %this, ptr %this.addr, align 8
  %this1 = load ptr, ptr %this.addr, align 8
  %x = getelementptr inbounds %"class.Imath_3_2::Matrix44", ptr %this1, i32 0, i32 0
  %arrayidx = getelementptr inbounds [4 x [4 x float]], ptr %x, i64 0, i64 0
  %arrayidx2 = getelementptr inbounds [4 x float], ptr %arrayidx, i64 0, i64 0
  store float 1.000000e+00, ptr %arrayidx2, align 4
  %x3 = getelementptr inbounds %"class.Imath_3_2::Matrix44", ptr %this1, i32 0, i32 0
  %arrayidx4 = getelementptr inbounds [4 x [4 x float]], ptr %x3, i64 0, i64 0
  %arrayidx5 = getelementptr inbounds [4 x float], ptr %arrayidx4, i64 0, i64 1
  store float 0.000000e+00, ptr %arrayidx5, align 4
  %x6 = getelementptr inbounds %"class.Imath_3_2::Matrix44", ptr %this1, i32 0, i32 0
  %arrayidx7 = getelementptr inbounds [4 x [4 x float]], ptr %x6, i64 0, i64 0
  %arrayidx8 = getelementptr inbounds [4 x float], ptr %arrayidx7, i64 0, i64 2
  store float 0.000000e+00, ptr %arrayidx8, align 4
  %x9 = getelementptr inbounds %"class.Imath_3_2::Matrix44", ptr %this1, i32 0, i32 0
  %arrayidx10 = getelementptr inbounds [4 x [4 x float]], ptr %x9, i64 0, i64 0
  %arrayidx11 = getelementptr inbounds [4 x float], ptr %arrayidx10, i64 0, i64 3
  store float 0.000000e+00, ptr %arrayidx11, align 4
  %x12 = getelementptr inbounds %"class.Imath_3_2::Matrix44", ptr %this1, i32 0, i32 0
  %arrayidx13 = getelementptr inbounds [4 x [4 x float]], ptr %x12, i64 0, i64 1
  %arrayidx14 = getelementptr inbounds [4 x float], ptr %arrayidx13, i64 0, i64 0
  store float 0.000000e+00, ptr %arrayidx14, align 4
  %x15 = getelementptr inbounds %"class.Imath_3_2::Matrix44", ptr %this1, i32 0, i32 0
  %arrayidx16 = getelementptr inbounds [4 x [4 x float]], ptr %x15, i64 0, i64 1
  %arrayidx17 = getelementptr inbounds [4 x float], ptr %arrayidx16, i64 0, i64 1
  store float 1.000000e+00, ptr %arrayidx17, align 4
  %x18 = getelementptr inbounds %"class.Imath_3_2::Matrix44", ptr %this1, i32 0, i32 0
  %arrayidx19 = getelementptr inbounds [4 x [4 x float]], ptr %x18, i64 0, i64 1
  %arrayidx20 = getelementptr inbounds [4 x float], ptr %arrayidx19, i64 0, i64 2
  store float 0.000000e+00, ptr %arrayidx20, align 4
  %x21 = getelementptr inbounds %"class.Imath_3_2::Matrix44", ptr %this1, i32 0, i32 0
  %arrayidx22 = getelementptr inbounds [4 x [4 x float]], ptr %x21, i64 0, i64 1
  %arrayidx23 = getelementptr inbounds [4 x float], ptr %arrayidx22, i64 0, i64 3
  store float 0.000000e+00, ptr %arrayidx23, align 4
  %x24 = getelementptr inbounds %"class.Imath_3_2::Matrix44", ptr %this1, i32 0, i32 0
  %arrayidx25 = getelementptr inbounds [4 x [4 x float]], ptr %x24, i64 0, i64 2
  %arrayidx26 = getelementptr inbounds [4 x float], ptr %arrayidx25, i64 0, i64 0
  store float 0.000000e+00, ptr %arrayidx26, align 4
  %x27 = getelementptr inbounds %"class.Imath_3_2::Matrix44", ptr %this1, i32 0, i32 0
  %arrayidx28 = getelementptr inbounds [4 x [4 x float]], ptr %x27, i64 0, i64 2
  %arrayidx29 = getelementptr inbounds [4 x float], ptr %arrayidx28, i64 0, i64 1
  store float 0.000000e+00, ptr %arrayidx29, align 4
  %x30 = getelementptr inbounds %"class.Imath_3_2::Matrix44", ptr %this1, i32 0, i32 0
  %arrayidx31 = getelementptr inbounds [4 x [4 x float]], ptr %x30, i64 0, i64 2
  %arrayidx32 = getelementptr inbounds [4 x float], ptr %arrayidx31, i64 0, i64 2
  store float 1.000000e+00, ptr %arrayidx32, align 4
  %x33 = getelementptr inbounds %"class.Imath_3_2::Matrix44", ptr %this1, i32 0, i32 0
  %arrayidx34 = getelementptr inbounds [4 x [4 x float]], ptr %x33, i64 0, i64 2
  %arrayidx35 = getelementptr inbounds [4 x float], ptr %arrayidx34, i64 0, i64 3
  store float 0.000000e+00, ptr %arrayidx35, align 4
  %x36 = getelementptr inbounds %"class.Imath_3_2::Matrix44", ptr %this1, i32 0, i32 0
  %arrayidx37 = getelementptr inbounds [4 x [4 x float]], ptr %x36, i64 0, i64 3
  %arrayidx38 = getelementptr inbounds [4 x float], ptr %arrayidx37, i64 0, i64 0
  store float 0.000000e+00, ptr %arrayidx38, align 4
  %x39 = getelementptr inbounds %"class.Imath_3_2::Matrix44", ptr %this1, i32 0, i32 0
  %arrayidx40 = getelementptr inbounds [4 x [4 x float]], ptr %x39, i64 0, i64 3
  %arrayidx41 = getelementptr inbounds [4 x float], ptr %arrayidx40, i64 0, i64 1
  store float 0.000000e+00, ptr %arrayidx41, align 4
  %x42 = getelementptr inbounds %"class.Imath_3_2::Matrix44", ptr %this1, i32 0, i32 0
  %arrayidx43 = getelementptr inbounds [4 x [4 x float]], ptr %x42, i64 0, i64 3
  %arrayidx44 = getelementptr inbounds [4 x float], ptr %arrayidx43, i64 0, i64 2
  store float 0.000000e+00, ptr %arrayidx44, align 4
  %x45 = getelementptr inbounds %"class.Imath_3_2::Matrix44", ptr %this1, i32 0, i32 0
  %arrayidx46 = getelementptr inbounds [4 x [4 x float]], ptr %x45, i64 0, i64 3
  %arrayidx47 = getelementptr inbounds [4 x float], ptr %arrayidx46, i64 0, i64 3
  store float 1.000000e+00, ptr %arrayidx47, align 4
  ret void
}

; Function Attrs: mustprogress nounwind uwtable
define hidden void @_ZN7Imf_3_213AcesInputFile4DataC2Ev(ptr noundef nonnull align 8 dereferenceable(108) %this) unnamed_addr #5 align 2 {
entry:
  %this.addr = alloca ptr, align 8
  store ptr %this, ptr %this.addr, align 8
  %this1 = load ptr, ptr %this.addr, align 8
  %rgbaFile = getelementptr inbounds %"class.Imf_3_2::AcesInputFile::Data", ptr %this1, i32 0, i32 0
  store ptr null, ptr %rgbaFile, align 8
  %fbBase = getelementptr inbounds %"class.Imf_3_2::AcesInputFile::Data", ptr %this1, i32 0, i32 1
  store ptr null, ptr %fbBase, align 8
  %fbXStride = getelementptr inbounds %"class.Imf_3_2::AcesInputFile::Data", ptr %this1, i32 0, i32 2
  store i64 0, ptr %fbXStride, align 8
  %fbYStride = getelementptr inbounds %"class.Imf_3_2::AcesInputFile::Data", ptr %this1, i32 0, i32 3
  store i64 0, ptr %fbYStride, align 8
  %minX = getelementptr inbounds %"class.Imf_3_2::AcesInputFile::Data", ptr %this1, i32 0, i32 4
  store i32 0, ptr %minX, align 8
  %maxX = getelementptr inbounds %"class.Imf_3_2::AcesInputFile::Data", ptr %this1, i32 0, i32 5
  store i32 0, ptr %maxX, align 4
  %mustConvertColor = getelementptr inbounds %"class.Imf_3_2::AcesInputFile::Data", ptr %this1, i32 0, i32 6
  store i8 0, ptr %mustConvertColor, align 8
  %fileToAces = getelementptr inbounds %"class.Imf_3_2::AcesInputFile::Data", ptr %this1, i32 0, i32 8
  call void @_ZN9Imath_3_28Matrix44IfEC2Ev(ptr noundef nonnull align 4 dereferenceable(64) %fileToAces) #3
  ret void
}