; Function Attrs: mustprogress nofree norecurse nosync nounwind willreturn memory(argmem: write) uwtable
define hidden void @_ZN7Imf_3_213AcesInputFile4DataC2Ev(ptr nocapture noundef nonnull writeonly align 8 dereferenceable(108) %this) unnamed_addr #4 align 2 {
entry:
  %fileToAces = getelementptr inbounds i8, ptr %this, i64 44
  tail call void @llvm.memset.p0.i64(ptr noundef nonnull align 8 dereferenceable(41) %this, i8 0, i64 41, i1 false)
  store float 1.000000e+00, ptr %fileToAces, align 4
  %arrayidx5.i = getelementptr inbounds i8, ptr %this, i64 48
  %arrayidx17.i = getelementptr inbounds i8, ptr %this, i64 64
  tail call void @llvm.memset.p0.i64(ptr noundef nonnull align 8 dereferenceable(16) %arrayidx5.i, i8 0, i64 16, i1 false)
  store float 1.000000e+00, ptr %arrayidx17.i, align 8
  %arrayidx20.i = getelementptr inbounds i8, ptr %this, i64 68
  %arrayidx32.i = getelementptr inbounds i8, ptr %this, i64 84
  tail call void @llvm.memset.p0.i64(ptr noundef nonnull align 4 dereferenceable(16) %arrayidx20.i, i8 0, i64 16, i1 false)
  store float 1.000000e+00, ptr %arrayidx32.i, align 4
  %arrayidx35.i = getelementptr inbounds i8, ptr %this, i64 88
  %arrayidx47.i = getelementptr inbounds i8, ptr %this, i64 104
  tail call void @llvm.memset.p0.i64(ptr noundef nonnull align 8 dereferenceable(16) %arrayidx35.i, i8 0, i64 16, i1 false)
  store float 1.000000e+00, ptr %arrayidx47.i, align 8
  ret void
}